	.arch armv8-a+crc
	.file	"cxx11-ios_failure.cc"
	.text
.Ltext0:
	.section	.rodata._ZNK12_GLOBAL__N_117io_error_category4nameEv.str1.1,"aMS",@progbits,1
.LC0:
	.string	"iostream"
	.section	.text._ZNK12_GLOBAL__N_117io_error_category4nameEv,"ax",@progbits
	.align	2
	.type	_ZNK12_GLOBAL__N_117io_error_category4nameEv, %function
_ZNK12_GLOBAL__N_117io_error_category4nameEv:
.LFB1483:
.LM1:
	.cfi_startproc
.LVL0:
.LM2:
.LM3:
	adrp	x0, .LC0
.LVL1:
	add	x0, x0, :lo12:.LC0
	ret
	.cfi_endproc
.LFE1483:
	.size	_ZNK12_GLOBAL__N_117io_error_category4nameEv, .-_ZNK12_GLOBAL__N_117io_error_category4nameEv
	.section	.text._ZN12_GLOBAL__N_113constant_initD2Ev,"ax",@progbits
	.align	2
	.type	_ZN12_GLOBAL__N_113constant_initD2Ev, %function
_ZN12_GLOBAL__N_113constant_initD2Ev:
.LFB1496:
.LM4:
	.cfi_startproc
.LVL2:
.LM5:
	ret
	.cfi_endproc
.LFE1496:
	.size	_ZN12_GLOBAL__N_113constant_initD2Ev, .-_ZN12_GLOBAL__N_113constant_initD2Ev
	.set	_ZN12_GLOBAL__N_113constant_initD1Ev,_ZN12_GLOBAL__N_113constant_initD2Ev
	.section	.text._ZN12_GLOBAL__N_117io_error_categoryD2Ev,"ax",@progbits
	.align	2
	.type	_ZN12_GLOBAL__N_117io_error_categoryD2Ev, %function
_ZN12_GLOBAL__N_117io_error_categoryD2Ev:
.LFB1886:
.LM6:
	.cfi_startproc
.LVL3:
.LBB365:
.LM7:
	adrp	x16, :got:_ZNSt3_V214error_categoryD2Ev
	ldr	x16, [x16, :got_lo12:_ZNSt3_V214error_categoryD2Ev]
	adrp	x1, _ZTVN12_GLOBAL__N_117io_error_categoryE+16
	add	x1, x1, :lo12:_ZTVN12_GLOBAL__N_117io_error_categoryE+16
	str	x1, [x0]
	br	x16
.LVL4:
.LBE365:
	.cfi_endproc
.LFE1886:
	.size	_ZN12_GLOBAL__N_117io_error_categoryD2Ev, .-_ZN12_GLOBAL__N_117io_error_categoryD2Ev
	.set	_ZN12_GLOBAL__N_117io_error_categoryD1Ev,_ZN12_GLOBAL__N_117io_error_categoryD2Ev
	.section	.text._ZN12_GLOBAL__N_117io_error_categoryD0Ev,"ax",@progbits
	.align	2
	.type	_ZN12_GLOBAL__N_117io_error_categoryD0Ev, %function
_ZN12_GLOBAL__N_117io_error_categoryD0Ev:
.LFB1888:
.LM8:
	.cfi_startproc
.LVL5:
	stp	x29, x30, [sp, -32]!
	.cfi_def_cfa_offset 32
	.cfi_offset 29, -32
	.cfi_offset 30, -24
	mov	x29, sp
	str	x19, [sp, 16]
	.cfi_offset 19, -16
.LM9:
	mov	x19, x0
	bl	_ZN12_GLOBAL__N_117io_error_categoryD1Ev
.LVL6:
	mov	x0, x19
	ldr	x19, [sp, 16]
.LVL7:
	ldp	x29, x30, [sp], 32
	.cfi_restore 30
	.cfi_restore 29
	.cfi_restore 19
	.cfi_def_cfa_offset 0
	adrp	x16, :got:_ZdlPv
	ldr	x16, [x16, :got_lo12:_ZdlPv]
	br	x16
.LVL8:
	.cfi_endproc
.LFE1888:
	.size	_ZN12_GLOBAL__N_117io_error_categoryD0Ev, .-_ZN12_GLOBAL__N_117io_error_categoryD0Ev
	.section	.text._ZNSt8ios_base7failureB5cxx11D2Ev,"ax",@progbits
	.align	2
	.global	_ZNSt8ios_base7failureB5cxx11D2Ev
	.type	_ZNSt8ios_base7failureB5cxx11D2Ev, %function
_ZNSt8ios_base7failureB5cxx11D2Ev:
.LFB1509:
.LM10:
	.cfi_startproc
.LVL9:
.LBB366:
.LM11:
	adrp	x1, :got:_ZTVNSt8ios_base7failureB5cxx11E
	ldr	x1, [x1, :got_lo12:_ZTVNSt8ios_base7failureB5cxx11E]
.LM12:
	adrp	x16, :got:_ZNSt12system_errorD2Ev
	ldr	x16, [x16, :got_lo12:_ZNSt12system_errorD2Ev]
.LM13:
	add	x1, x1, 16
	str	x1, [x0]
.LM14:
	br	x16
.LVL10:
.LBE366:
	.cfi_endproc
.LFE1509:
	.size	_ZNSt8ios_base7failureB5cxx11D2Ev, .-_ZNSt8ios_base7failureB5cxx11D2Ev
	.global	_ZNSt8ios_base7failureB5cxx11D1Ev
	.set	_ZNSt8ios_base7failureB5cxx11D1Ev,_ZNSt8ios_base7failureB5cxx11D2Ev
	.section	.text._ZNSt8ios_base7failureB5cxx11D0Ev,"ax",@progbits
	.align	2
	.global	_ZNSt8ios_base7failureB5cxx11D0Ev
	.type	_ZNSt8ios_base7failureB5cxx11D0Ev, %function
_ZNSt8ios_base7failureB5cxx11D0Ev:
.LFB1511:
.LM15:
	.cfi_startproc
.LVL11:
	stp	x29, x30, [sp, -32]!
	.cfi_def_cfa_offset 32
	.cfi_offset 29, -32
	.cfi_offset 30, -24
.LM16:
	adrp	x1, :got:_ZNSt8ios_base7failureB5cxx11D1Ev
	ldr	x1, [x1, :got_lo12:_ZNSt8ios_base7failureB5cxx11D1Ev]
.LM17:
	mov	x29, sp
	str	x19, [sp, 16]
	.cfi_offset 19, -16
.LM18:
	mov	x19, x0
.LM19:
	blr	x1
.LVL12:
	mov	x0, x19
	ldr	x19, [sp, 16]
.LVL13:
	ldp	x29, x30, [sp], 32
	.cfi_restore 30
	.cfi_restore 29
	.cfi_restore 19
	.cfi_def_cfa_offset 0
	adrp	x16, :got:_ZdlPv
	ldr	x16, [x16, :got_lo12:_ZdlPv]
	br	x16
.LVL14:
	.cfi_endproc
.LFE1511:
	.size	_ZNSt8ios_base7failureB5cxx11D0Ev, .-_ZNSt8ios_base7failureB5cxx11D0Ev
	.section	.text._ZNKSt8ios_base7failureB5cxx114whatEv,"ax",@progbits
	.align	2
	.global	_ZNKSt8ios_base7failureB5cxx114whatEv
	.type	_ZNKSt8ios_base7failureB5cxx114whatEv, %function
_ZNKSt8ios_base7failureB5cxx114whatEv:
.LFB1512:
.LM20:
	.cfi_startproc
.LVL15:
.LM21:
.LM22:
	adrp	x16, :got:_ZNKSt13runtime_error4whatEv
	ldr	x16, [x16, :got_lo12:_ZNKSt13runtime_error4whatEv]
	br	x16
.LVL16:
	.cfi_endproc
.LFE1512:
	.size	_ZNKSt8ios_base7failureB5cxx114whatEv, .-_ZNKSt8ios_base7failureB5cxx114whatEv
	.section	.text._ZNSt19__iosfail_type_infoD2Ev,"ax",@progbits
	.align	2
	.global	_ZNSt19__iosfail_type_infoD2Ev
	.type	_ZNSt19__iosfail_type_infoD2Ev, %function
_ZNSt19__iosfail_type_infoD2Ev:
.LFB1524:
.LM23:
	.cfi_startproc
.LVL17:
.LBB367:
.LM24:
	adrp	x1, :got:_ZTVSt19__iosfail_type_info
	ldr	x1, [x1, :got_lo12:_ZTVSt19__iosfail_type_info]
	adrp	x16, :got:_ZN10__cxxabiv120__si_class_type_infoD2Ev
	ldr	x16, [x16, :got_lo12:_ZN10__cxxabiv120__si_class_type_infoD2Ev]
	add	x1, x1, 16
	str	x1, [x0]
	br	x16
.LVL18:
.LBE367:
	.cfi_endproc
.LFE1524:
	.size	_ZNSt19__iosfail_type_infoD2Ev, .-_ZNSt19__iosfail_type_infoD2Ev
	.global	_ZNSt19__iosfail_type_infoD1Ev
	.set	_ZNSt19__iosfail_type_infoD1Ev,_ZNSt19__iosfail_type_infoD2Ev
	.section	.text._ZNSt19__iosfail_type_infoD0Ev,"ax",@progbits
	.align	2
	.global	_ZNSt19__iosfail_type_infoD0Ev
	.type	_ZNSt19__iosfail_type_infoD0Ev, %function
_ZNSt19__iosfail_type_infoD0Ev:
.LFB1526:
.LM25:
	.cfi_startproc
.LVL19:
	stp	x29, x30, [sp, -32]!
	.cfi_def_cfa_offset 32
	.cfi_offset 29, -32
	.cfi_offset 30, -24
	adrp	x1, :got:_ZNSt19__iosfail_type_infoD1Ev
	ldr	x1, [x1, :got_lo12:_ZNSt19__iosfail_type_infoD1Ev]
	mov	x29, sp
	str	x19, [sp, 16]
	.cfi_offset 19, -16
.LM26:
	mov	x19, x0
	blr	x1
.LVL20:
	mov	x0, x19
	ldr	x19, [sp, 16]
.LVL21:
	ldp	x29, x30, [sp], 32
	.cfi_restore 30
	.cfi_restore 29
	.cfi_restore 19
	.cfi_def_cfa_offset 0
	adrp	x16, :got:_ZdlPv
	ldr	x16, [x16, :got_lo12:_ZdlPv]
	br	x16
.LVL22:
	.cfi_endproc
.LFE1526:
	.size	_ZNSt19__iosfail_type_infoD0Ev, .-_ZNSt19__iosfail_type_infoD0Ev
	.section	.text._ZNKSt19__iosfail_type_info11__do_upcastEPKN10__cxxabiv117__class_type_infoEPPv,"ax",@progbits
	.align	2
	.global	_ZNKSt19__iosfail_type_info11__do_upcastEPKN10__cxxabiv117__class_type_infoEPPv
	.type	_ZNKSt19__iosfail_type_info11__do_upcastEPKN10__cxxabiv117__class_type_infoEPPv, %function
_ZNKSt19__iosfail_type_info11__do_upcastEPKN10__cxxabiv117__class_type_infoEPPv:
.LFB1527:
.LM27:
	.cfi_startproc
.LVL23:
.LM28:
.LM29:
	stp	x29, x30, [sp, -48]!
	.cfi_def_cfa_offset 48
	.cfi_offset 29, -48
	.cfi_offset 30, -40
	mov	x29, sp
	stp	x19, x20, [sp, 16]
	.cfi_offset 19, -32
	.cfi_offset 20, -24
	mov	x20, x1
	mov	x19, x2
	str	x21, [sp, 32]
	.cfi_offset 21, -16
.LM30:
	mov	x21, x0
.LM31:
	mov	x0, x1
.LVL24:
	adrp	x1, :got:_ZSt24__is_ios_failure_handlerPKN10__cxxabiv117__class_type_infoE
	ldr	x1, [x1, :got_lo12:_ZSt24__is_ios_failure_handlerPKN10__cxxabiv117__class_type_infoE]
.LVL25:
	blr	x1
.LVL26:
.LM32:
	tst	w0, 255
	bne	.L17
.LM33:
.LM34:
	mov	x2, x19
	mov	x1, x20
.LM35:
	ldp	x19, x20, [sp, 16]
.LVL27:
.LM36:
	mov	x0, x21
.LM37:
	ldr	x21, [sp, 32]
.LVL28:
	ldp	x29, x30, [sp], 48
	.cfi_remember_state
	.cfi_restore 30
	.cfi_restore 29
	.cfi_restore 21
	.cfi_restore 19
	.cfi_restore 20
	.cfi_def_cfa_offset 0
.LM38:
	adrp	x16, :got:_ZNK10__cxxabiv117__class_type_info11__do_upcastEPKS0_PPv
	ldr	x16, [x16, :got_lo12:_ZNK10__cxxabiv117__class_type_info11__do_upcastEPKS0_PPv]
	br	x16
.LVL29:
.L17:
	.cfi_restore_state
.LM39:
.LM40:
	ldr	x1, [x19]
.LM41:
	ldr	x21, [sp, 32]
.LVL30:
.LM42:
	add	x1, x1, 32
.LM43:
	str	x1, [x19]
.LM44:
.LM45:
	ldp	x19, x20, [sp, 16]
.LVL31:
	ldp	x29, x30, [sp], 48
	.cfi_restore 30
	.cfi_restore 29
	.cfi_restore 21
	.cfi_restore 19
	.cfi_restore 20
	.cfi_def_cfa_offset 0
	ret
	.cfi_endproc
.LFE1527:
	.size	_ZNKSt19__iosfail_type_info11__do_upcastEPKN10__cxxabiv117__class_type_infoEPPv, .-_ZNKSt19__iosfail_type_info11__do_upcastEPKN10__cxxabiv117__class_type_infoEPPv
	.section	.text._ZNSt13__ios_failureD2Ev,"axG",@progbits,_ZNSt13__ios_failureD5Ev,comdat
	.align	2
	.weak	_ZNSt13__ios_failureD2Ev
	.type	_ZNSt13__ios_failureD2Ev, %function
_ZNSt13__ios_failureD2Ev:
.LFB1520:
.LM46:
	.cfi_startproc
	.cfi_personality 0x9b,DW.ref.__gxx_personality_v0
	.cfi_lsda 0x1b,.LLSDA1520
.LVL32:
	stp	x29, x30, [sp, -32]!
	.cfi_def_cfa_offset 32
	.cfi_offset 29, -32
	.cfi_offset 30, -24
.LBB368:
.LM47:
	adrp	x1, :got:_ZTVSt13__ios_failure
	ldr	x1, [x1, :got_lo12:_ZTVSt13__ios_failure]
.LBE368:
.LM48:
	mov	x29, sp
	str	x19, [sp, 16]
	.cfi_offset 19, -16
.LM49:
	mov	x19, x0
.LBB369:
.LM50:
	add	x1, x1, 16
	str	x1, [x0], 32
.LVL33:
.LM51:
.LM52:
	adrp	x1, :got:_ZSt21__destroy_ios_failurePv
	ldr	x1, [x1, :got_lo12:_ZSt21__destroy_ios_failurePv]
	blr	x1
.LVL34:
.LM53:
	mov	x0, x19
.LBE369:
	ldr	x19, [sp, 16]
.LVL35:
	ldp	x29, x30, [sp], 32
	.cfi_restore 30
	.cfi_restore 29
	.cfi_restore 19
	.cfi_def_cfa_offset 0
.LBB370:
	adrp	x16, :got:_ZNSt8ios_base7failureB5cxx11D2Ev
	ldr	x16, [x16, :got_lo12:_ZNSt8ios_base7failureB5cxx11D2Ev]
	br	x16
.LVL36:
.LBE370:
	.cfi_endproc
.LFE1520:
	.global	__gxx_personality_v0
	.section	.gcc_except_table._ZNSt13__ios_failureD2Ev,"aG",@progbits,_ZNSt13__ios_failureD5Ev,comdat
.LLSDA1520:
	.byte	0xff
	.byte	0xff
	.byte	0x1
	.uleb128 .LLSDACSE1520-.LLSDACSB1520
.LLSDACSB1520:
.LLSDACSE1520:
	.section	.text._ZNSt13__ios_failureD2Ev,"axG",@progbits,_ZNSt13__ios_failureD5Ev,comdat
	.size	_ZNSt13__ios_failureD2Ev, .-_ZNSt13__ios_failureD2Ev
	.weak	_ZNSt13__ios_failureD1Ev
	.set	_ZNSt13__ios_failureD1Ev,_ZNSt13__ios_failureD2Ev
	.section	.text._ZNSt13__ios_failureD0Ev,"axG",@progbits,_ZNSt13__ios_failureD5Ev,comdat
	.align	2
	.weak	_ZNSt13__ios_failureD0Ev
	.type	_ZNSt13__ios_failureD0Ev, %function
_ZNSt13__ios_failureD0Ev:
.LFB1522:
.LM54:
	.cfi_startproc
.LVL37:
	stp	x29, x30, [sp, -32]!
	.cfi_def_cfa_offset 32
	.cfi_offset 29, -32
	.cfi_offset 30, -24
.LM55:
	adrp	x1, :got:_ZNSt13__ios_failureD1Ev
	ldr	x1, [x1, :got_lo12:_ZNSt13__ios_failureD1Ev]
.LM56:
	mov	x29, sp
	str	x19, [sp, 16]
	.cfi_offset 19, -16
.LM57:
	mov	x19, x0
.LM58:
	blr	x1
.LVL38:
	mov	x0, x19
	ldr	x19, [sp, 16]
.LVL39:
	ldp	x29, x30, [sp], 32
	.cfi_restore 30
	.cfi_restore 29
	.cfi_restore 19
	.cfi_def_cfa_offset 0
	adrp	x16, :got:_ZdlPv
	ldr	x16, [x16, :got_lo12:_ZdlPv]
	br	x16
.LVL40:
	.cfi_endproc
.LFE1522:
	.size	_ZNSt13__ios_failureD0Ev, .-_ZNSt13__ios_failureD0Ev
	.section	.rodata._ZNK12_GLOBAL__N_117io_error_category7messageB5cxx11Ei.str1.1,"aMS",@progbits,1
.LC1:
	.string	"iostream error"
.LC2:
	.string	"Unknown error"
	.section	.text._ZNK12_GLOBAL__N_117io_error_category7messageB5cxx11Ei,"ax",@progbits
	.align	2
	.type	_ZNK12_GLOBAL__N_117io_error_category7messageB5cxx11Ei, %function
_ZNK12_GLOBAL__N_117io_error_category7messageB5cxx11Ei:
.LFB1484:
.LM59:
	.cfi_startproc
	.cfi_personality 0x9b,DW.ref.__gxx_personality_v0
	.cfi_lsda 0x1b,.LLSDA1484
.LVL41:
.LM60:
.LM61:
	stp	x29, x30, [sp, -32]!
	.cfi_def_cfa_offset 32
	.cfi_offset 29, -32
	.cfi_offset 30, -24
.LBB413:
.LBB414:
.LBB415:
.LM62:
	add	x0, x8, 16
.LVL42:
.LBE415:
.LBE414:
.LBE413:
.LM63:
	cmp	w1, 1
.LM64:
	mov	x29, sp
	stp	x19, x20, [sp, 16]
	.cfi_offset 19, -16
	.cfi_offset 20, -8
.LM65:
	mov	x19, x8
.LBB424:
.LBB416:
.LBB417:
.LBB418:
.LM66:
	stp	x0, xzr, [x8]
.LVL43:
.LBE418:
.LBE417:
.LBB419:
.LBB420:
.LM67:
.LBE420:
.LBE419:
.LBE416:
.LBE424:
.LM68:
.LBB425:
.LBB423:
.LBB422:
.LBB421:
.LM69:
	strb	wzr, [x8, 16]
	adrp	x5, :got:_ZNSt7__cxx1112basic_stringIcSt11char_traitsIcESaIcEE10_M_replaceEmmPKcm
	ldr	x5, [x5, :got_lo12:_ZNSt7__cxx1112basic_stringIcSt11char_traitsIcESaIcEE10_M_replaceEmmPKcm]
.LBE421:
.LBE422:
.LBE423:
.LBE425:
.LM70:
	bne	.L24
.LM71:
.LM72:
.LVL44:
.LBB426:
.LBB427:
.LBB428:
.LM73:
	adrp	x3, .LC1
	add	x3, x3, :lo12:.LC1
	mov	x4, 14
.LVL45:
.L30:
.LBE428:
.LBE427:
.LBE426:
.LBB429:
.LBB430:
.LBB431:
	mov	x0, x19
	mov	x2, 0
	mov	x1, 0
.LVL46:
.LEHB0:
	blr	x5
.LVL47:
.LEHE0:
	b	.L31
.LVL48:
.L24:
.LBE431:
.LBE430:
.LBE429:
.LM74:
.LM75:
.LBB434:
.LBB433:
.LBB432:
.LM76:
	adrp	x3, .LC2
	add	x3, x3, :lo12:.LC2
	mov	x4, 13
	b	.L30
.LVL49:
.L27:
.LBE432:
.LBE433:
.LBE434:
.LBB435:
.LBB436:
.LM77:
	adrp	x1, :got:_ZNSt7__cxx1112basic_stringIcSt11char_traitsIcESaIcEE10_M_disposeEv
	ldr	x1, [x1, :got_lo12:_ZNSt7__cxx1112basic_stringIcSt11char_traitsIcESaIcEE10_M_disposeEv]
	mov	x20, x0
.LVL50:
	mov	x0, x19
	blr	x1
.LVL51:
	adrp	x1, :got:_Unwind_Resume
	ldr	x1, [x1, :got_lo12:_Unwind_Resume]
	mov	x0, x20
.LEHB1:
	blr	x1
.LVL52:
.LEHE1:
.L31:
.LBE436:
.LBE435:
.LM78:
	mov	x0, x19
	ldp	x19, x20, [sp, 16]
.LVL53:
	ldp	x29, x30, [sp], 32
	.cfi_restore 30
	.cfi_restore 29
	.cfi_restore 19
	.cfi_restore 20
	.cfi_def_cfa_offset 0
	ret
	.cfi_endproc
.LFE1484:
	.section	.gcc_except_table._ZNK12_GLOBAL__N_117io_error_category7messageB5cxx11Ei,"a",@progbits
.LLSDA1484:
	.byte	0xff
	.byte	0xff
	.byte	0x1
	.uleb128 .LLSDACSE1484-.LLSDACSB1484
.LLSDACSB1484:
	.uleb128 .LEHB0-.LFB1484
	.uleb128 .LEHE0-.LEHB0
	.uleb128 .L27-.LFB1484
	.uleb128 0
	.uleb128 .LEHB1-.LFB1484
	.uleb128 .LEHE1-.LEHB1
	.uleb128 0
	.uleb128 0
.LLSDACSE1484:
	.section	.text._ZNK12_GLOBAL__N_117io_error_category7messageB5cxx11Ei
	.size	_ZNK12_GLOBAL__N_117io_error_category7messageB5cxx11Ei, .-_ZNK12_GLOBAL__N_117io_error_category7messageB5cxx11Ei
	.section	.text._ZNKSt10error_code7messageB5cxx11Ev,"axG",@progbits,_ZNKSt10error_code7messageB5cxx11Ev,comdat
	.align	2
	.weak	_ZNKSt10error_code7messageB5cxx11Ev
	.type	_ZNKSt10error_code7messageB5cxx11Ev, %function
_ZNKSt10error_code7messageB5cxx11Ev:
.LFB1101:
.LM79:
	.cfi_startproc
.LVL54:
.LM80:
.LM81:
	stp	x29, x30, [sp, -32]!
	.cfi_def_cfa_offset 32
	.cfi_offset 29, -32
	.cfi_offset 30, -24
	mov	x1, x0
.LVL55:
.LBB437:
.LBB438:
.LM82:
.LBE438:
.LBE437:
.LM83:
	mov	x29, sp
.LBB440:
.LBB439:
.LM84:
	ldr	x0, [x0, 8]
.LVL56:
.LBE439:
.LBE440:
.LBB441:
.LBB442:
.LM85:
.LBE442:
.LBE441:
.LM86:
	ldr	w1, [x1]
.LVL57:
.LM87:
	ldr	x2, [x0]
.LM88:
	ldr	x2, [x2, 32]
.LM89:
	str	x19, [sp, 16]
	.cfi_offset 19, -16
.LM90:
	mov	x19, x8
.LM91:
	blr	x2
.LVL58:
.LM92:
	mov	x0, x19
	ldr	x19, [sp, 16]
	ldp	x29, x30, [sp], 32
	.cfi_restore 30
	.cfi_restore 29
	.cfi_restore 19
	.cfi_def_cfa_offset 0
	ret
	.cfi_endproc
.LFE1101:
	.size	_ZNKSt10error_code7messageB5cxx11Ev, .-_ZNKSt10error_code7messageB5cxx11Ev
	.section	.rodata._ZNSt12system_errorC2ESt10error_codeRKNSt7__cxx1112basic_stringIcSt11char_traitsIcESaIcEEE.str1.1,"aMS",@progbits,1
.LC3:
	.string	"basic_string::append"
.LC4:
	.string	": "
	.section	.text._ZNSt12system_errorC2ESt10error_codeRKNSt7__cxx1112basic_stringIcSt11char_traitsIcESaIcEEE,"axG",@progbits,_ZNSt12system_errorC5ESt10error_codeRKNSt7__cxx1112basic_stringIcSt11char_traitsIcESaIcEEE,comdat
	.align	2
	.weak	_ZNSt12system_errorC2ESt10error_codeRKNSt7__cxx1112basic_stringIcSt11char_traitsIcESaIcEEE
	.type	_ZNSt12system_errorC2ESt10error_codeRKNSt7__cxx1112basic_stringIcSt11char_traitsIcESaIcEEE, %function
_ZNSt12system_errorC2ESt10error_codeRKNSt7__cxx1112basic_stringIcSt11char_traitsIcESaIcEEE:
.LFB1134:
.LM93:
	.cfi_startproc
	.cfi_personality 0x9b,DW.ref.__gxx_personality_v0
	.cfi_lsda 0x1b,.LLSDA1134
.LVL59:
	stp	x29, x30, [sp, -208]!
	.cfi_def_cfa_offset 208
	.cfi_offset 29, -208
	.cfi_offset 30, -200
	mov	x29, sp
	stp	x19, x20, [sp, 16]
	.cfi_offset 19, -192
	.cfi_offset 20, -184
	mov	x19, x0
.LBB500:
.LBB501:
.LBB502:
.LM94:
	add	x20, sp, 136
.LBE502:
.LBE501:
.LBE500:
.LM95:
	adrp	x0, :got:__stack_chk_guard
	ldr	x0, [x0, :got_lo12:__stack_chk_guard]
.LVL60:
	stp	x21, x22, [sp, 32]
	stp	x23, x24, [sp, 48]
	stp	x25, x26, [sp, 64]
	.cfi_offset 21, -176
	.cfi_offset 22, -168
	.cfi_offset 23, -160
	.cfi_offset 24, -152
	.cfi_offset 25, -144
	.cfi_offset 26, -136
.LM96:
	stp	x1, x2, [sp, 80]
	mov	x1, x3
.LVL61:
	ldr	x2, [x0]
	str	x2, [sp, 200]
	mov	x2, 0
.LVL62:
.LBB532:
.LBB511:
.LBB509:
.LM97:
	mov	x0, x20
	adrp	x2, :got:_ZNSt7__cxx1112basic_stringIcSt11char_traitsIcESaIcEEC1ERKS4_
	ldr	x2, [x2, :got_lo12:_ZNSt7__cxx1112basic_stringIcSt11char_traitsIcESaIcEEC1ERKS4_]
	adrp	x21, :got:_ZNSt7__cxx1112basic_stringIcSt11char_traitsIcESaIcEE10_M_disposeEv
	ldr	x21, [x21, :got_lo12:_ZNSt7__cxx1112basic_stringIcSt11char_traitsIcESaIcEE10_M_disposeEv]
.LEHB2:
	blr	x2
.LVL63:
.LEHE2:
.LBB503:
.LBB504:
.LBB505:
.LBB506:
.LM98:
	ldr	x1, [sp, 144]
	mov	x0, 4611686018427387903
	sub	x0, x0, x1
	cmp	x0, 1
	bhi	.L35
.LM99:
	adrp	x1, :got:_ZSt20__throw_length_errorPKc
	ldr	x1, [x1, :got_lo12:_ZSt20__throw_length_errorPKc]
	adrp	x0, .LC3
	add	x0, x0, :lo12:.LC3
.LEHB3:
	blr	x1
.LVL64:
.L47:
.L52:
.LBE506:
.LBE505:
.LBE504:
.LBE503:
.LBE509:
.LBE511:
.LBB512:
.LBB513:
.LM100:
	mov	x19, x0
.LVL65:
	b	.L42
.LVL66:
.L35:
.LBE513:
.LBE512:
.LBB515:
.LBB510:
.LBB508:
.LBB507:
.LM101:
	adrp	x3, :got:_ZNSt7__cxx1112basic_stringIcSt11char_traitsIcESaIcEE9_M_appendEPKcm
	ldr	x3, [x3, :got_lo12:_ZNSt7__cxx1112basic_stringIcSt11char_traitsIcESaIcEE9_M_appendEPKcm]
	adrp	x1, .LC4
	add	x1, x1, :lo12:.LC4
	mov	x0, x20
	mov	x2, 2
	blr	x3
.LVL67:
.LEHE3:
.LBE507:
.LBE508:
.LBE510:
.LBE515:
.LM102:
	adrp	x1, :got:_ZNKSt10error_code7messageB5cxx11Ev
	ldr	x1, [x1, :got_lo12:_ZNKSt10error_code7messageB5cxx11Ev]
	add	x22, sp, 168
	mov	x8, x22
	add	x0, sp, 80
.LEHB4:
	blr	x1
.LVL68:
.LEHE4:
.LBB516:
.LBB517:
.LBB518:
.LM103:
	ldr	x24, [sp, 144]
	add	x23, sp, 104
	ldr	x0, [sp, 176]
.LM104:
	adrp	x26, :got:_ZNKSt7__cxx1112basic_stringIcSt11char_traitsIcESaIcEE8capacityEv
	ldr	x26, [x26, :got_lo12:_ZNKSt7__cxx1112basic_stringIcSt11char_traitsIcESaIcEE8capacityEv]
.LM105:
	add	x24, x24, x0
.LVL69:
	adrp	x25, :got:_ZNSt7__cxx1112basic_stringIcSt11char_traitsIcESaIcEEC1EOS4_
	ldr	x25, [x25, :got_lo12:_ZNSt7__cxx1112basic_stringIcSt11char_traitsIcESaIcEEC1EOS4_]
.LM106:
	mov	x0, x20
	blr	x26
.LVL70:
.LM107:
	cmp	x24, x0
	bls	.L38
.LM108:
	mov	x0, x22
	blr	x26
.LVL71:
.LM109:
	cmp	x24, x0
	bhi	.L38
.LM110:
	adrp	x3, :got:_ZNSt7__cxx1112basic_stringIcSt11char_traitsIcESaIcEE6insertEmRKS4_
	ldr	x3, [x3, :got_lo12:_ZNSt7__cxx1112basic_stringIcSt11char_traitsIcESaIcEE6insertEmRKS4_]
	mov	x2, x20
	mov	x0, x22
	mov	x1, 0
.LEHB5:
	blr	x3
.LVL72:
	b	.L51
.L38:
.LBE518:
.LM111:
	adrp	x2, :got:_ZNSt7__cxx1112basic_stringIcSt11char_traitsIcESaIcEE6appendERKS4_
	ldr	x2, [x2, :got_lo12:_ZNSt7__cxx1112basic_stringIcSt11char_traitsIcESaIcEE6appendERKS4_]
	mov	x1, x22
	mov	x0, x20
	blr	x2
.LVL73:
.LEHE5:
.L51:
.LM112:
	mov	x1, x0
	mov	x0, x23
	blr	x25
.LVL74:
.LBE517:
.LBE516:
.LM113:
	adrp	x2, :got:_ZNSt13runtime_errorC2ERKNSt7__cxx1112basic_stringIcSt11char_traitsIcESaIcEEE
	ldr	x2, [x2, :got_lo12:_ZNSt13runtime_errorC2ERKNSt7__cxx1112basic_stringIcSt11char_traitsIcESaIcEEE]
	mov	x1, x23
	mov	x0, x19
.LEHB6:
	blr	x2
.LVL75:
.LEHE6:
.LBB519:
.LBB520:
.LM114:
	mov	x0, x23
	blr	x21
.LVL76:
.LBE520:
.LBE519:
.LBB521:
.LBB522:
	mov	x0, x22
	blr	x21
.LVL77:
.LBE522:
.LBE521:
.LBB523:
.LBB524:
	mov	x0, x20
	blr	x21
.LVL78:
.LBE524:
.LBE523:
.LM115:
	adrp	x0, :got:_ZTVSt12system_error
	ldr	x0, [x0, :got_lo12:_ZTVSt12system_error]
	add	x0, x0, 16
	str	x0, [x19]
.LVL79:
.LM116:
	ldp	x0, x1, [sp, 80]
	stp	x0, x1, [x19, 16]
.LBE532:
.LM117:
	adrp	x0, :got:__stack_chk_guard
	ldr	x0, [x0, :got_lo12:__stack_chk_guard]
	ldr	x2, [sp, 200]
	ldr	x1, [x0]
	subs	x2, x2, x1
	mov	x1, 0
	beq	.L43
	adrp	x0, :got:__stack_chk_fail
	ldr	x0, [x0, :got_lo12:__stack_chk_fail]
	blr	x0
.LVL80:
.L46:
.LBB533:
.LBB525:
.LBB526:
.LM118:
	mov	x19, x0
.LVL81:
	mov	x0, x23
	blr	x21
.LVL82:
.L41:
.LBE526:
.LBE525:
.LBB527:
.LBB528:
.LM119:
	mov	x0, x22
	blr	x21
.LVL83:
.L42:
.LBE528:
.LBE527:
.LBB530:
.LBB514:
.LM120:
	mov	x0, x20
	blr	x21
.LVL84:
	adrp	x1, :got:_Unwind_Resume
	ldr	x1, [x1, :got_lo12:_Unwind_Resume]
	mov	x0, x19
.LEHB7:
	blr	x1
.LVL85:
.LEHE7:
.L45:
.LBE514:
.LBE530:
.LBB531:
.LBB529:
.LM121:
	mov	x19, x0
.LVL86:
	b	.L41
.LVL87:
.L44:
	b	.L52
.LVL88:
.L43:
.LBE529:
.LBE531:
.LBE533:
.LM122:
	ldp	x19, x20, [sp, 16]
.LVL89:
	ldp	x21, x22, [sp, 32]
	ldp	x23, x24, [sp, 48]
	ldp	x25, x26, [sp, 64]
	ldp	x29, x30, [sp], 208
	.cfi_restore 30
	.cfi_restore 29
	.cfi_restore 25
	.cfi_restore 26
	.cfi_restore 23
	.cfi_restore 24
	.cfi_restore 21
	.cfi_restore 22
	.cfi_restore 19
	.cfi_restore 20
	.cfi_def_cfa_offset 0
	ret
	.cfi_endproc
.LFE1134:
	.section	.gcc_except_table._ZNSt12system_errorC2ESt10error_codeRKNSt7__cxx1112basic_stringIcSt11char_traitsIcESaIcEEE,"aG",@progbits,_ZNSt12system_errorC5ESt10error_codeRKNSt7__cxx1112basic_stringIcSt11char_traitsIcESaIcEEE,comdat
.LLSDA1134:
	.byte	0xff
	.byte	0xff
	.byte	0x1
	.uleb128 .LLSDACSE1134-.LLSDACSB1134
.LLSDACSB1134:
	.uleb128 .LEHB2-.LFB1134
	.uleb128 .LEHE2-.LEHB2
	.uleb128 0
	.uleb128 0
	.uleb128 .LEHB3-.LFB1134
	.uleb128 .LEHE3-.LEHB3
	.uleb128 .L47-.LFB1134
	.uleb128 0
	.uleb128 .LEHB4-.LFB1134
	.uleb128 .LEHE4-.LEHB4
	.uleb128 .L44-.LFB1134
	.uleb128 0
	.uleb128 .LEHB5-.LFB1134
	.uleb128 .LEHE5-.LEHB5
	.uleb128 .L45-.LFB1134
	.uleb128 0
	.uleb128 .LEHB6-.LFB1134
	.uleb128 .LEHE6-.LEHB6
	.uleb128 .L46-.LFB1134
	.uleb128 0
	.uleb128 .LEHB7-.LFB1134
	.uleb128 .LEHE7-.LEHB7
	.uleb128 0
	.uleb128 0
.LLSDACSE1134:
	.section	.text._ZNSt12system_errorC2ESt10error_codeRKNSt7__cxx1112basic_stringIcSt11char_traitsIcESaIcEEE,"axG",@progbits,_ZNSt12system_errorC5ESt10error_codeRKNSt7__cxx1112basic_stringIcSt11char_traitsIcESaIcEEE,comdat
	.size	_ZNSt12system_errorC2ESt10error_codeRKNSt7__cxx1112basic_stringIcSt11char_traitsIcESaIcEEE, .-_ZNSt12system_errorC2ESt10error_codeRKNSt7__cxx1112basic_stringIcSt11char_traitsIcESaIcEEE
	.weak	_ZNSt12system_errorC1ESt10error_codeRKNSt7__cxx1112basic_stringIcSt11char_traitsIcESaIcEEE
	.set	_ZNSt12system_errorC1ESt10error_codeRKNSt7__cxx1112basic_stringIcSt11char_traitsIcESaIcEEE,_ZNSt12system_errorC2ESt10error_codeRKNSt7__cxx1112basic_stringIcSt11char_traitsIcESaIcEEE
	.section	.text._ZSt17iostream_categoryv,"ax",@progbits
	.align	2
	.global	_ZSt17iostream_categoryv
	.type	_ZSt17iostream_categoryv, %function
_ZSt17iostream_categoryv:
.LFB1498:
.LM123:
	.cfi_startproc
.LM124:
.LM125:
	adrp	x0, _ZN12_GLOBAL__N_120io_category_instanceE
	add	x0, x0, :lo12:_ZN12_GLOBAL__N_120io_category_instanceE
	ret
	.cfi_endproc
.LFE1498:
	.size	_ZSt17iostream_categoryv, .-_ZSt17iostream_categoryv
	.section	.text._ZNSt8ios_base7failureB5cxx11C2ERKNSt7__cxx1112basic_stringIcSt11char_traitsIcESaIcEEE,"ax",@progbits
	.align	2
	.global	_ZNSt8ios_base7failureB5cxx11C2ERKNSt7__cxx1112basic_stringIcSt11char_traitsIcESaIcEEE
	.type	_ZNSt8ios_base7failureB5cxx11C2ERKNSt7__cxx1112basic_stringIcSt11char_traitsIcESaIcEEE, %function
_ZNSt8ios_base7failureB5cxx11C2ERKNSt7__cxx1112basic_stringIcSt11char_traitsIcESaIcEEE:
.LFB1500:
.LM126:
	.cfi_startproc
.LVL90:
.LBB541:
.LBB542:
.LBB543:
.LBB544:
.LBB545:
.LM127:
.LBE545:
.LBE544:
.LBE543:
.LBE542:
.LBE541:
.LM128:
	stp	x29, x30, [sp, -32]!
	.cfi_def_cfa_offset 32
	.cfi_offset 29, -32
	.cfi_offset 30, -24
	mov	x29, sp
	stp	x19, x20, [sp, 16]
	.cfi_offset 19, -16
	.cfi_offset 20, -8
.LM129:
	mov	x19, x0
	mov	x20, x1
.LBB550:
.LBB549:
.LBB548:
.LBB547:
.LBB546:
.LM130:
	adrp	x0, :got:_ZSt17iostream_categoryv
	ldr	x0, [x0, :got_lo12:_ZSt17iostream_categoryv]
.LVL91:
	blr	x0
.LVL92:
.LBE546:
.LBE547:
.LBE548:
.LBE549:
.LM131:
	mov	x2, x0
	adrp	x4, :got:_ZNSt12system_errorC2ESt10error_codeRKNSt7__cxx1112basic_stringIcSt11char_traitsIcESaIcEEE
	ldr	x4, [x4, :got_lo12:_ZNSt12system_errorC2ESt10error_codeRKNSt7__cxx1112basic_stringIcSt11char_traitsIcESaIcEEE]
	mov	x3, x20
	mov	x0, x19
	mov	x1, 1
	blr	x4
.LVL93:
	adrp	x0, :got:_ZTVNSt8ios_base7failureB5cxx11E
	ldr	x0, [x0, :got_lo12:_ZTVNSt8ios_base7failureB5cxx11E]
	add	x0, x0, 16
	str	x0, [x19]
.LBE550:
.LM132:
	ldp	x19, x20, [sp, 16]
.LVL94:
	ldp	x29, x30, [sp], 32
	.cfi_restore 30
	.cfi_restore 29
	.cfi_restore 19
	.cfi_restore 20
	.cfi_def_cfa_offset 0
	ret
	.cfi_endproc
.LFE1500:
	.size	_ZNSt8ios_base7failureB5cxx11C2ERKNSt7__cxx1112basic_stringIcSt11char_traitsIcESaIcEEE, .-_ZNSt8ios_base7failureB5cxx11C2ERKNSt7__cxx1112basic_stringIcSt11char_traitsIcESaIcEEE
	.global	_ZNSt8ios_base7failureB5cxx11C1ERKNSt7__cxx1112basic_stringIcSt11char_traitsIcESaIcEEE
	.set	_ZNSt8ios_base7failureB5cxx11C1ERKNSt7__cxx1112basic_stringIcSt11char_traitsIcESaIcEEE,_ZNSt8ios_base7failureB5cxx11C2ERKNSt7__cxx1112basic_stringIcSt11char_traitsIcESaIcEEE
	.section	.text._ZNSt8ios_base7failureB5cxx11C2ERKNSt7__cxx1112basic_stringIcSt11char_traitsIcESaIcEEERKSt10error_code,"ax",@progbits
	.align	2
	.global	_ZNSt8ios_base7failureB5cxx11C2ERKNSt7__cxx1112basic_stringIcSt11char_traitsIcESaIcEEERKSt10error_code
	.type	_ZNSt8ios_base7failureB5cxx11C2ERKNSt7__cxx1112basic_stringIcSt11char_traitsIcESaIcEEERKSt10error_code, %function
_ZNSt8ios_base7failureB5cxx11C2ERKNSt7__cxx1112basic_stringIcSt11char_traitsIcESaIcEEERKSt10error_code:
.LFB1503:
.LM133:
	.cfi_startproc
.LVL95:
	stp	x29, x30, [sp, -32]!
	.cfi_def_cfa_offset 32
	.cfi_offset 29, -32
	.cfi_offset 30, -24
.LBB551:
.LM134:
	mov	x3, x1
.LBE551:
.LM135:
	mov	x29, sp
.LBB552:
.LM136:
	ldp	x1, x2, [x2]
.LVL96:
.LBE552:
.LM137:
	str	x19, [sp, 16]
	.cfi_offset 19, -16
.LBB553:
.LM138:
	adrp	x4, :got:_ZNSt12system_errorC2ESt10error_codeRKNSt7__cxx1112basic_stringIcSt11char_traitsIcESaIcEEE
	ldr	x4, [x4, :got_lo12:_ZNSt12system_errorC2ESt10error_codeRKNSt7__cxx1112basic_stringIcSt11char_traitsIcESaIcEEE]
.LBE553:
.LM139:
	mov	x19, x0
.LBB554:
.LM140:
	blr	x4
.LVL97:
	adrp	x0, :got:_ZTVNSt8ios_base7failureB5cxx11E
	ldr	x0, [x0, :got_lo12:_ZTVNSt8ios_base7failureB5cxx11E]
	add	x0, x0, 16
	str	x0, [x19]
.LBE554:
.LM141:
	ldr	x19, [sp, 16]
.LVL98:
	ldp	x29, x30, [sp], 32
	.cfi_restore 30
	.cfi_restore 29
	.cfi_restore 19
	.cfi_def_cfa_offset 0
	ret
	.cfi_endproc
.LFE1503:
	.size	_ZNSt8ios_base7failureB5cxx11C2ERKNSt7__cxx1112basic_stringIcSt11char_traitsIcESaIcEEERKSt10error_code, .-_ZNSt8ios_base7failureB5cxx11C2ERKNSt7__cxx1112basic_stringIcSt11char_traitsIcESaIcEEERKSt10error_code
	.global	_ZNSt8ios_base7failureB5cxx11C1ERKNSt7__cxx1112basic_stringIcSt11char_traitsIcESaIcEEERKSt10error_code
	.set	_ZNSt8ios_base7failureB5cxx11C1ERKNSt7__cxx1112basic_stringIcSt11char_traitsIcESaIcEEERKSt10error_code,_ZNSt8ios_base7failureB5cxx11C2ERKNSt7__cxx1112basic_stringIcSt11char_traitsIcESaIcEEERKSt10error_code
	.section	.text._ZNSt8ios_base7failureB5cxx11C2EPKcRKSt10error_code,"ax",@progbits
	.align	2
	.global	_ZNSt8ios_base7failureB5cxx11C2EPKcRKSt10error_code
	.type	_ZNSt8ios_base7failureB5cxx11C2EPKcRKSt10error_code, %function
_ZNSt8ios_base7failureB5cxx11C2EPKcRKSt10error_code:
.LFB1506:
.LM142:
	.cfi_startproc
	.cfi_personality 0x9b,DW.ref.__gxx_personality_v0
	.cfi_lsda 0x1b,.LLSDA1506
.LVL99:
	stp	x29, x30, [sp, -208]!
	.cfi_def_cfa_offset 208
	.cfi_offset 29, -208
	.cfi_offset 30, -200
	mov	x29, sp
	stp	x19, x20, [sp, 16]
	.cfi_offset 19, -192
	.cfi_offset 20, -184
	mov	x19, x0
	adrp	x0, :got:__stack_chk_guard
	ldr	x0, [x0, :got_lo12:__stack_chk_guard]
.LVL100:
	stp	x21, x22, [sp, 32]
	.cfi_offset 21, -176
	.cfi_offset 22, -168
.LBB593:
.LBB594:
.LBB595:
.LM143:
	add	x21, sp, 104
.LBE595:
.LBE594:
.LBE593:
.LM144:
	stp	x23, x24, [sp, 48]
	.cfi_offset 23, -160
	.cfi_offset 24, -152
	mov	x24, x1
.LBB626:
.LBB622:
.LBB618:
.LM145:
	mov	x8, x21
.LBE618:
.LBE622:
.LBE626:
.LM146:
	str	x25, [sp, 64]
	.cfi_offset 25, -144
.LBB627:
.LBB623:
.LBB619:
.LBB596:
.LBB597:
.LM147:
	adrp	x25, :got:_ZNSt7__cxx1112basic_stringIcSt11char_traitsIcESaIcEE6insertEmPKc
	ldr	x25, [x25, :got_lo12:_ZNSt7__cxx1112basic_stringIcSt11char_traitsIcESaIcEE6insertEmPKc]
.LBE597:
.LBE596:
.LBE619:
.LBE623:
.LBE627:
.LM148:
	ldr	x1, [x0]
	str	x1, [sp, 200]
	mov	x1, 0
.LVL101:
	ldp	x0, x1, [x2]
	stp	x0, x1, [sp, 88]
.LVL102:
.LBB628:
.LBB624:
.LBB620:
.LM149:
	adrp	x1, :got:_ZNKSt10error_code7messageB5cxx11Ev
	ldr	x1, [x1, :got_lo12:_ZNKSt10error_code7messageB5cxx11Ev]
	add	x0, sp, 88
	adrp	x20, :got:_ZNSt7__cxx1112basic_stringIcSt11char_traitsIcESaIcEE10_M_disposeEv
	ldr	x20, [x20, :got_lo12:_ZNSt7__cxx1112basic_stringIcSt11char_traitsIcESaIcEE10_M_disposeEv]
.LEHB8:
	blr	x1
.LVL103:
.LEHE8:
.LBB599:
.LBB598:
.LM150:
	adrp	x2, .LC4
	add	x2, x2, :lo12:.LC4
	mov	x0, x21
	mov	x1, 0
.LEHB9:
	blr	x25
.LVL104:
.LEHE9:
.LM151:
	adrp	x23, :got:_ZNSt7__cxx1112basic_stringIcSt11char_traitsIcESaIcEEC1EOS4_
	ldr	x23, [x23, :got_lo12:_ZNSt7__cxx1112basic_stringIcSt11char_traitsIcESaIcEEC1EOS4_]
	add	x22, sp, 136
	mov	x1, x0
	mov	x0, x22
	blr	x23
.LVL105:
.LBE598:
.LBE599:
.LBB600:
.LBB601:
.LM152:
	mov	x2, x24
	mov	x0, x22
	mov	x24, x23
.LVL106:
	mov	x1, 0
.LEHB10:
	blr	x25
.LVL107:
.LEHE10:
.LM153:
	add	x23, sp, 168
	mov	x1, x0
	mov	x0, x23
	blr	x24
.LVL108:
.LBE601:
.LBE600:
.LM154:
	adrp	x2, :got:_ZNSt13runtime_errorC2ERKNSt7__cxx1112basic_stringIcSt11char_traitsIcESaIcEEE
	ldr	x2, [x2, :got_lo12:_ZNSt13runtime_errorC2ERKNSt7__cxx1112basic_stringIcSt11char_traitsIcESaIcEEE]
	mov	x1, x23
	mov	x0, x19
.LEHB11:
	blr	x2
.LVL109:
.LEHE11:
.LBB602:
.LBB603:
.LM155:
	mov	x0, x23
	blr	x20
.LVL110:
.LBE603:
.LBE602:
.LBB604:
.LBB605:
	mov	x0, x22
	blr	x20
.LVL111:
.LBE605:
.LBE604:
.LBB606:
.LBB607:
	mov	x0, x21
	blr	x20
.LVL112:
.LBE607:
.LBE606:
.LM156:
	ldp	x0, x1, [sp, 88]
	stp	x0, x1, [x19, 16]
.LVL113:
.LBE620:
.LBE624:
.LM157:
	adrp	x0, :got:_ZTVNSt8ios_base7failureB5cxx11E
	ldr	x0, [x0, :got_lo12:_ZTVNSt8ios_base7failureB5cxx11E]
	add	x0, x0, 16
	str	x0, [x19]
.LBE628:
.LM158:
	adrp	x0, :got:__stack_chk_guard
	ldr	x0, [x0, :got_lo12:__stack_chk_guard]
	ldr	x2, [sp, 200]
	ldr	x1, [x0]
	subs	x2, x2, x1
	mov	x1, 0
	beq	.L62
	adrp	x0, :got:__stack_chk_fail
	ldr	x0, [x0, :got_lo12:__stack_chk_fail]
	blr	x0
.LVL114:
.L65:
.LBB629:
.LBB625:
.LBB621:
.LBB608:
.LBB609:
.LM159:
	mov	x19, x0
.LVL115:
	mov	x0, x23
	blr	x20
.LVL116:
.L60:
.LBE609:
.LBE608:
.LBB610:
.LBB611:
	mov	x0, x22
	blr	x20
.LVL117:
.L61:
.LBE611:
.LBE610:
.LBB613:
.LBB614:
	mov	x0, x21
	blr	x20
.LVL118:
	adrp	x1, :got:_Unwind_Resume
	ldr	x1, [x1, :got_lo12:_Unwind_Resume]
	mov	x0, x19
.LEHB12:
	blr	x1
.LVL119:
.LEHE12:
.L64:
.LBE614:
.LBE613:
.LBB616:
.LBB612:
	mov	x19, x0
.LVL120:
	b	.L60
.LVL121:
.L63:
.LBE612:
.LBE616:
.LBB617:
.LBB615:
	mov	x19, x0
.LVL122:
	b	.L61
.LVL123:
.L62:
.LBE615:
.LBE617:
.LBE621:
.LBE625:
.LBE629:
.LM160:
	ldp	x19, x20, [sp, 16]
.LVL124:
	ldp	x21, x22, [sp, 32]
	ldp	x23, x24, [sp, 48]
	ldr	x25, [sp, 64]
	ldp	x29, x30, [sp], 208
	.cfi_restore 30
	.cfi_restore 29
	.cfi_restore 25
	.cfi_restore 23
	.cfi_restore 24
	.cfi_restore 21
	.cfi_restore 22
	.cfi_restore 19
	.cfi_restore 20
	.cfi_def_cfa_offset 0
	ret
	.cfi_endproc
.LFE1506:
	.section	.gcc_except_table._ZNSt8ios_base7failureB5cxx11C2EPKcRKSt10error_code,"a",@progbits
.LLSDA1506:
	.byte	0xff
	.byte	0xff
	.byte	0x1
	.uleb128 .LLSDACSE1506-.LLSDACSB1506
.LLSDACSB1506:
	.uleb128 .LEHB8-.LFB1506
	.uleb128 .LEHE8-.LEHB8
	.uleb128 0
	.uleb128 0
	.uleb128 .LEHB9-.LFB1506
	.uleb128 .LEHE9-.LEHB9
	.uleb128 .L63-.LFB1506
	.uleb128 0
	.uleb128 .LEHB10-.LFB1506
	.uleb128 .LEHE10-.LEHB10
	.uleb128 .L64-.LFB1506
	.uleb128 0
	.uleb128 .LEHB11-.LFB1506
	.uleb128 .LEHE11-.LEHB11
	.uleb128 .L65-.LFB1506
	.uleb128 0
	.uleb128 .LEHB12-.LFB1506
	.uleb128 .LEHE12-.LEHB12
	.uleb128 0
	.uleb128 0
.LLSDACSE1506:
	.section	.text._ZNSt8ios_base7failureB5cxx11C2EPKcRKSt10error_code
	.size	_ZNSt8ios_base7failureB5cxx11C2EPKcRKSt10error_code, .-_ZNSt8ios_base7failureB5cxx11C2EPKcRKSt10error_code
	.global	_ZNSt8ios_base7failureB5cxx11C1EPKcRKSt10error_code
	.set	_ZNSt8ios_base7failureB5cxx11C1EPKcRKSt10error_code,_ZNSt8ios_base7failureB5cxx11C2EPKcRKSt10error_code
	.section	.text.unlikely._ZSt19__throw_ios_failurePKc,"ax",@progbits
	.align	2
	.global	_ZSt19__throw_ios_failurePKc
	.type	_ZSt19__throw_ios_failurePKc, %function
_ZSt19__throw_ios_failurePKc:
.LFB1528:
.LM161:
	.cfi_startproc
	.cfi_personality 0x9b,DW.ref.__gxx_personality_v0
	.cfi_lsda 0x1b,.LLSDA1528
.LVL125:
.LM162:
.LM163:
	stp	x29, x30, [sp, -48]!
	.cfi_def_cfa_offset 48
	.cfi_offset 29, -48
	.cfi_offset 30, -40
.LM164:
	adrp	x1, :got:__cxa_allocate_exception
	ldr	x1, [x1, :got_lo12:__cxa_allocate_exception]
.LM165:
	mov	x29, sp
	stp	x19, x20, [sp, 16]
	.cfi_offset 19, -32
	.cfi_offset 20, -24
.LM166:
	mov	x20, x0
.LM167:
	mov	x0, 48
.LVL126:
	blr	x1
.LVL127:
	mov	x19, x0
.LVL128:
.LBB639:
.LBB640:
.LBB641:
.LBB642:
.LBB643:
.LBB644:
.LBB645:
.LM168:
.LM169:
	adrp	x0, :got:_ZSt17iostream_categoryv
	ldr	x0, [x0, :got_lo12:_ZSt17iostream_categoryv]
.LVL129:
	blr	x0
.LVL130:
.LBE645:
.LBE644:
.LM170:
	str	x0, [sp, 40]
.LVL131:
.LBE643:
.LBE642:
.LBE641:
.LM171:
	adrp	x3, :got:_ZNSt8ios_base7failureB5cxx11C2EPKcRKSt10error_code
	ldr	x3, [x3, :got_lo12:_ZNSt8ios_base7failureB5cxx11C2EPKcRKSt10error_code]
.LBB650:
.LBB648:
.LBB646:
.LM172:
	mov	w1, 1
.LBE646:
.LBE648:
.LBE650:
.LM173:
	add	x2, sp, 32
	mov	x0, x19
.LBB651:
.LBB649:
.LBB647:
.LM174:
	str	w1, [sp, 32]
.LBE647:
.LBE649:
.LBE651:
.LM175:
	mov	x1, x20
.LEHB13:
	blr	x3
.LVL132:
.LEHE13:
	adrp	x0, :got:_ZTVSt13__ios_failure
	ldr	x0, [x0, :got_lo12:_ZTVSt13__ios_failure]
.LM176:
	adrp	x1, :got:_ZNKSt13runtime_error4whatEv
	ldr	x1, [x1, :got_lo12:_ZNKSt13runtime_error4whatEv]
.LM177:
	add	x0, x0, 16
	str	x0, [x19]
.LM178:
.LM179:
	mov	x0, x19
	blr	x1
.LVL133:
	mov	x1, x0
	adrp	x2, :got:_ZSt23__construct_ios_failurePvPKc
	ldr	x2, [x2, :got_lo12:_ZSt23__construct_ios_failurePvPKc]
	add	x0, x19, 32
.LEHB14:
	blr	x2
.LVL134:
.LEHE14:
	b	.L76
.L73:
.LM180:
	adrp	x1, :got:_ZNSt8ios_base7failureB5cxx11D2Ev
	ldr	x1, [x1, :got_lo12:_ZNSt8ios_base7failureB5cxx11D2Ev]
	mov	x20, x0
.LVL135:
	mov	x0, x19
	blr	x1
.LVL136:
.L71:
.LBE640:
.LBE639:
.LM181:
	adrp	x1, :got:__cxa_free_exception
	ldr	x1, [x1, :got_lo12:__cxa_free_exception]
	mov	x0, x19
	blr	x1
.LVL137:
	adrp	x1, :got:_Unwind_Resume
	ldr	x1, [x1, :got_lo12:_Unwind_Resume]
	mov	x0, x20
.LEHB15:
	blr	x1
.LVL138:
.L76:
.LM182:
	adrp	x2, :got:_ZNSt13__ios_failureD1Ev
	ldr	x2, [x2, :got_lo12:_ZNSt13__ios_failureD1Ev]
	mov	x0, x19
	adrp	x1, :got:_ZTISt13__ios_failure
	ldr	x1, [x1, :got_lo12:_ZTISt13__ios_failure]
	adrp	x3, :got:__cxa_throw
	ldr	x3, [x3, :got_lo12:__cxa_throw]
	blr	x3
.LVL139:
.LEHE15:
.L72:
.LM183:
	mov	x20, x0
.LVL140:
	b	.L71
	.cfi_endproc
.LFE1528:
	.section	.gcc_except_table._ZSt19__throw_ios_failurePKc,"a",@progbits
.LLSDA1528:
	.byte	0xff
	.byte	0xff
	.byte	0x1
	.uleb128 .LLSDACSE1528-.LLSDACSB1528
.LLSDACSB1528:
	.uleb128 .LEHB13-.LFB1528
	.uleb128 .LEHE13-.LEHB13
	.uleb128 .L72-.LFB1528
	.uleb128 0
	.uleb128 .LEHB14-.LFB1528
	.uleb128 .LEHE14-.LEHB14
	.uleb128 .L73-.LFB1528
	.uleb128 0
	.uleb128 .LEHB15-.LFB1528
	.uleb128 .LEHE15-.LEHB15
	.uleb128 0
	.uleb128 0
.LLSDACSE1528:
	.section	.text.unlikely._ZSt19__throw_ios_failurePKc
	.size	_ZSt19__throw_ios_failurePKc, .-_ZSt19__throw_ios_failurePKc
	.section	.text.unlikely._ZSt19__throw_ios_failurePKci,"ax",@progbits
	.align	2
	.global	_ZSt19__throw_ios_failurePKci
	.type	_ZSt19__throw_ios_failurePKci, %function
_ZSt19__throw_ios_failurePKci:
.LFB1538:
.LM184:
	.cfi_startproc
	.cfi_personality 0x9b,DW.ref.__gxx_personality_v0
	.cfi_lsda 0x1b,.LLSDA1538
.LVL141:
.LM185:
.LM186:
	stp	x29, x30, [sp, -64]!
	.cfi_def_cfa_offset 64
	.cfi_offset 29, -64
	.cfi_offset 30, -56
	mov	x29, sp
	stp	x19, x20, [sp, 16]
	.cfi_offset 19, -48
	.cfi_offset 20, -40
	mov	w20, w1
.LM187:
	adrp	x1, :got:__cxa_allocate_exception
	ldr	x1, [x1, :got_lo12:__cxa_allocate_exception]
.LVL142:
.LM188:
	str	x21, [sp, 32]
	.cfi_offset 21, -32
.LM189:
	mov	x21, x0
.LM190:
	mov	x0, 48
.LVL143:
	blr	x1
.LVL144:
	mov	x19, x0
	cbz	w20, .L78
.LM191:
	adrp	x0, :got:_ZNSt3_V216generic_categoryEv
	ldr	x0, [x0, :got_lo12:_ZNSt3_V216generic_categoryEv]
	blr	x0
.LVL145:
.LBB664:
.LBB665:
.LBB666:
.LM192:
	str	w20, [sp, 48]
.LVL146:
.L87:
.LBE666:
.LBE665:
.LBE664:
.LBB667:
.LBB668:
.LM193:
	adrp	x3, :got:_ZNSt8ios_base7failureB5cxx11C2EPKcRKSt10error_code
	ldr	x3, [x3, :got_lo12:_ZNSt8ios_base7failureB5cxx11C2EPKcRKSt10error_code]
.LBE668:
.LBE667:
.LBB671:
.LBB672:
.LBB673:
.LM194:
	str	x0, [sp, 56]
.LVL147:
.LBE673:
.LBE672:
.LBE671:
.LBB678:
.LBB669:
.LM195:
	add	x2, sp, 48
.LVL148:
	mov	x1, x21
	mov	x0, x19
.LEHB16:
	blr	x3
.LVL149:
.LEHE16:
	b	.L88
.LVL150:
.L78:
.LBE669:
.LBE678:
.LBB679:
.LBB677:
.LBB676:
.LBB674:
.LBB675:
.LM196:
.LM197:
	adrp	x0, :got:_ZSt17iostream_categoryv
	ldr	x0, [x0, :got_lo12:_ZSt17iostream_categoryv]
	blr	x0
.LVL151:
.LBE675:
.LBE674:
.LM198:
	mov	w1, 1
	str	w1, [sp, 48]
	b	.L87
.LVL152:
.L88:
.LBE676:
.LBE677:
.LBE679:
.LBB680:
.LBB670:
.LM199:
	adrp	x0, :got:_ZTVSt13__ios_failure
	ldr	x0, [x0, :got_lo12:_ZTVSt13__ios_failure]
.LM200:
	adrp	x1, :got:_ZNKSt13runtime_error4whatEv
	ldr	x1, [x1, :got_lo12:_ZNKSt13runtime_error4whatEv]
.LM201:
	add	x0, x0, 16
	str	x0, [x19]
.LM202:
.LM203:
	mov	x0, x19
	blr	x1
.LVL153:
	mov	x1, x0
	adrp	x2, :got:_ZSt23__construct_ios_failurePvPKc
	ldr	x2, [x2, :got_lo12:_ZSt23__construct_ios_failurePvPKc]
	add	x0, x19, 32
.LEHB17:
	blr	x2
.LVL154:
.LEHE17:
	b	.L89
.L84:
.LM204:
	adrp	x1, :got:_ZNSt8ios_base7failureB5cxx11D2Ev
	ldr	x1, [x1, :got_lo12:_ZNSt8ios_base7failureB5cxx11D2Ev]
	mov	x20, x0
.LVL155:
	mov	x0, x19
	blr	x1
.LVL156:
.L82:
.LBE670:
.LBE680:
.LM205:
	adrp	x1, :got:__cxa_free_exception
	ldr	x1, [x1, :got_lo12:__cxa_free_exception]
	mov	x0, x19
	blr	x1
.LVL157:
	adrp	x1, :got:_Unwind_Resume
	ldr	x1, [x1, :got_lo12:_Unwind_Resume]
	mov	x0, x20
.LEHB18:
	blr	x1
.LVL158:
.L89:
.LM206:
	adrp	x2, :got:_ZNSt13__ios_failureD1Ev
	ldr	x2, [x2, :got_lo12:_ZNSt13__ios_failureD1Ev]
	mov	x0, x19
	adrp	x1, :got:_ZTISt13__ios_failure
	ldr	x1, [x1, :got_lo12:_ZTISt13__ios_failure]
	adrp	x3, :got:__cxa_throw
	ldr	x3, [x3, :got_lo12:__cxa_throw]
	blr	x3
.LVL159:
.LEHE18:
.L83:
.LM207:
	mov	x20, x0
.LVL160:
	b	.L82
	.cfi_endproc
.LFE1538:
	.section	.gcc_except_table._ZSt19__throw_ios_failurePKci,"a",@progbits
.LLSDA1538:
	.byte	0xff
	.byte	0xff
	.byte	0x1
	.uleb128 .LLSDACSE1538-.LLSDACSB1538
.LLSDACSB1538:
	.uleb128 .LEHB16-.LFB1538
	.uleb128 .LEHE16-.LEHB16
	.uleb128 .L83-.LFB1538
	.uleb128 0
	.uleb128 .LEHB17-.LFB1538
	.uleb128 .LEHE17-.LEHB17
	.uleb128 .L84-.LFB1538
	.uleb128 0
	.uleb128 .LEHB18-.LFB1538
	.uleb128 .LEHE18-.LEHB18
	.uleb128 0
	.uleb128 0
.LLSDACSE1538:
	.section	.text.unlikely._ZSt19__throw_ios_failurePKci
	.size	_ZSt19__throw_ios_failurePKci, .-_ZSt19__throw_ios_failurePKci
	.section	.text.startup._GLOBAL__sub_I_cxx11_ios_failure.cc,"ax",@progbits
	.align	2
	.type	_GLOBAL__sub_I_cxx11_ios_failure.cc, %function
_GLOBAL__sub_I_cxx11_ios_failure.cc:
.LFB1890:
.LM208:
	.cfi_startproc
.LVL161:
.LBB683:
.LBB684:
.LM209:
	adrp	x16, :got:__cxa_atexit
	ldr	x16, [x16, :got_lo12:__cxa_atexit]
	adrp	x2, __dso_handle
	add	x2, x2, :lo12:__dso_handle
	adrp	x1, _ZN12_GLOBAL__N_120io_category_instanceE
	add	x1, x1, :lo12:_ZN12_GLOBAL__N_120io_category_instanceE
	adrp	x0, _ZN12_GLOBAL__N_113constant_initD1Ev
	add	x0, x0, :lo12:_ZN12_GLOBAL__N_113constant_initD1Ev
	br	x16
.LVL162:
.LBE684:
.LBE683:
	.cfi_endproc
.LFE1890:
	.size	_GLOBAL__sub_I_cxx11_ios_failure.cc, .-_GLOBAL__sub_I_cxx11_ios_failure.cc
	.section	.init_array,"aw"
	.align	3
	.xword	_GLOBAL__sub_I_cxx11_ios_failure.cc
	.weak	_ZTSNSt8ios_base7failureB5cxx11E
	.section	.rodata._ZTSNSt8ios_base7failureB5cxx11E,"aG",@progbits,_ZTSNSt8ios_base7failureB5cxx11E,comdat
	.type	_ZTSNSt8ios_base7failureB5cxx11E, %object
	.size	_ZTSNSt8ios_base7failureB5cxx11E, 29
_ZTSNSt8ios_base7failureB5cxx11E:
	.string	"NSt8ios_base7failureB5cxx11E"
	.weak	_ZTINSt8ios_base7failureB5cxx11E
	.section	.data.rel.ro._ZTINSt8ios_base7failureB5cxx11E,"awG",@progbits,_ZTINSt8ios_base7failureB5cxx11E,comdat
	.align	3
	.type	_ZTINSt8ios_base7failureB5cxx11E, %object
	.size	_ZTINSt8ios_base7failureB5cxx11E, 24
_ZTINSt8ios_base7failureB5cxx11E:
	.xword	_ZTVN10__cxxabiv120__si_class_type_infoE+16
	.xword	_ZTSNSt8ios_base7failureB5cxx11E
	.xword	_ZTISt12system_error
	.section	.data.rel.ro._ZTIN12_GLOBAL__N_117io_error_categoryE,"aw"
	.align	3
	.type	_ZTIN12_GLOBAL__N_117io_error_categoryE, %object
	.size	_ZTIN12_GLOBAL__N_117io_error_categoryE, 24
_ZTIN12_GLOBAL__N_117io_error_categoryE:
	.xword	_ZTVN10__cxxabiv120__si_class_type_infoE+16
	.xword	_ZTSN12_GLOBAL__N_117io_error_categoryE
	.xword	_ZTINSt3_V214error_categoryE
	.section	.rodata._ZTSN12_GLOBAL__N_117io_error_categoryE,"a"
	.type	_ZTSN12_GLOBAL__N_117io_error_categoryE, %object
	.size	_ZTSN12_GLOBAL__N_117io_error_categoryE, 37
_ZTSN12_GLOBAL__N_117io_error_categoryE:
	.string	"*N12_GLOBAL__N_117io_error_categoryE"
	.weak	_ZTSSt13__ios_failure
	.section	.rodata._ZTSSt13__ios_failure,"aG",@progbits,_ZTSSt13__ios_failure,comdat
	.type	_ZTSSt13__ios_failure, %object
	.size	_ZTSSt13__ios_failure, 18
_ZTSSt13__ios_failure:
	.string	"St13__ios_failure"
	.weak	_ZTISt13__ios_failure
	.section	.data.rel.ro._ZTISt13__ios_failure,"awG",@progbits,_ZTISt13__ios_failure,comdat
	.align	3
	.type	_ZTISt13__ios_failure, %object
	.size	_ZTISt13__ios_failure, 24
_ZTISt13__ios_failure:
	.xword	_ZTVSt19__iosfail_type_info+16
	.xword	_ZTSSt13__ios_failure
	.xword	_ZTINSt8ios_base7failureB5cxx11E
	.weak	_ZTSSt19__iosfail_type_info
	.section	.rodata._ZTSSt19__iosfail_type_info,"aG",@progbits,_ZTSSt19__iosfail_type_info,comdat
	.type	_ZTSSt19__iosfail_type_info, %object
	.size	_ZTSSt19__iosfail_type_info, 24
_ZTSSt19__iosfail_type_info:
	.string	"St19__iosfail_type_info"
	.weak	_ZTISt19__iosfail_type_info
	.section	.data.rel.ro._ZTISt19__iosfail_type_info,"awG",@progbits,_ZTISt19__iosfail_type_info,comdat
	.align	3
	.type	_ZTISt19__iosfail_type_info, %object
	.size	_ZTISt19__iosfail_type_info, 40
_ZTISt19__iosfail_type_info:
	.xword	_ZTVN10__cxxabiv121__vmi_class_type_infoE+16
	.xword	_ZTSSt19__iosfail_type_info
	.word	0
	.word	1
	.xword	_ZTIN10__cxxabiv120__si_class_type_infoE
	.xword	0
	.section	.data.rel.ro._ZTVN12_GLOBAL__N_117io_error_categoryE,"aw"
	.align	3
	.type	_ZTVN12_GLOBAL__N_117io_error_categoryE, %object
	.size	_ZTVN12_GLOBAL__N_117io_error_categoryE, 80
_ZTVN12_GLOBAL__N_117io_error_categoryE:
	.xword	0
	.xword	_ZTIN12_GLOBAL__N_117io_error_categoryE
	.xword	_ZN12_GLOBAL__N_117io_error_categoryD1Ev
	.xword	_ZN12_GLOBAL__N_117io_error_categoryD0Ev
	.xword	_ZNK12_GLOBAL__N_117io_error_category4nameEv
	.xword	_ZNKSt3_V214error_category10_M_messageB5cxx11Ei
	.xword	_ZNK12_GLOBAL__N_117io_error_category7messageB5cxx11Ei
	.xword	_ZNKSt3_V214error_category23default_error_conditionEi
	.xword	_ZNKSt3_V214error_category10equivalentEiRKSt15error_condition
	.xword	_ZNKSt3_V214error_category10equivalentERKSt10error_codei
	.weak	_ZTVNSt8ios_base7failureB5cxx11E
	.section	.data.rel.ro._ZTVNSt8ios_base7failureB5cxx11E,"awG",@progbits,_ZTVNSt8ios_base7failureB5cxx11E,comdat
	.align	3
	.type	_ZTVNSt8ios_base7failureB5cxx11E, %object
	.size	_ZTVNSt8ios_base7failureB5cxx11E, 40
_ZTVNSt8ios_base7failureB5cxx11E:
	.xword	0
	.xword	_ZTINSt8ios_base7failureB5cxx11E
	.xword	_ZNSt8ios_base7failureB5cxx11D1Ev
	.xword	_ZNSt8ios_base7failureB5cxx11D0Ev
	.xword	_ZNKSt8ios_base7failureB5cxx114whatEv
	.weak	_ZTVSt13__ios_failure
	.section	.data.rel.ro._ZTVSt13__ios_failure,"awG",@progbits,_ZTVSt13__ios_failure,comdat
	.align	3
	.type	_ZTVSt13__ios_failure, %object
	.size	_ZTVSt13__ios_failure, 40
_ZTVSt13__ios_failure:
	.xword	0
	.xword	_ZTISt13__ios_failure
	.xword	_ZNSt13__ios_failureD1Ev
	.xword	_ZNSt13__ios_failureD0Ev
	.xword	_ZNKSt8ios_base7failureB5cxx114whatEv
	.weak	_ZTVSt19__iosfail_type_info
	.section	.data.rel.ro._ZTVSt19__iosfail_type_info,"awG",@progbits,_ZTVSt19__iosfail_type_info,comdat
	.align	3
	.type	_ZTVSt19__iosfail_type_info, %object
	.size	_ZTVSt19__iosfail_type_info, 88
_ZTVSt19__iosfail_type_info:
	.xword	0
	.xword	_ZTISt19__iosfail_type_info
	.xword	_ZNSt19__iosfail_type_infoD1Ev
	.xword	_ZNSt19__iosfail_type_infoD0Ev
	.xword	_ZNKSt9type_info14__is_pointer_pEv
	.xword	_ZNKSt9type_info15__is_function_pEv
	.xword	_ZNK10__cxxabiv117__class_type_info10__do_catchEPKSt9type_infoPPvj
	.xword	_ZNKSt19__iosfail_type_info11__do_upcastEPKN10__cxxabiv117__class_type_infoEPPv
	.xword	_ZNK10__cxxabiv120__si_class_type_info11__do_upcastEPKNS_17__class_type_infoEPKvRNS1_15__upcast_resultE
	.xword	_ZNK10__cxxabiv120__si_class_type_info12__do_dyncastElNS_17__class_type_info10__sub_kindEPKS1_PKvS4_S6_RNS1_16__dyncast_resultE
	.xword	_ZNK10__cxxabiv120__si_class_type_info20__do_find_public_srcElPKvPKNS_17__class_type_infoES2_
	.section	.data.rel.local._ZN12_GLOBAL__N_120io_category_instanceE,"aw"
	.align	3
	.type	_ZN12_GLOBAL__N_120io_category_instanceE, %object
	.size	_ZN12_GLOBAL__N_120io_category_instanceE, 8
_ZN12_GLOBAL__N_120io_category_instanceE:
	.xword	_ZTVN12_GLOBAL__N_117io_error_categoryE+16
	.text
.Letext0:
	.section	.data.rel.local.DW.ref.__gxx_personality_v0,"awG",@progbits,DW.ref.__gxx_personality_v0,comdat
	.align	3
	.type	DW.ref.__gxx_personality_v0, %object
	.size	DW.ref.__gxx_personality_v0, 8
DW.ref.__gxx_personality_v0:
	.xword	__gxx_personality_v0
	.hidden	__dso_handle
	.ident	"GCC: (OpenWrt GCC 12.3.0 r24106-10cc5fcd00) 12.3.0"
	.section	.note.GNU-stack,"",@progbits
